target datalayout = "e-m:e-p270:32:32-p271:32:32-p272:64:64-i64:64-i128:128-f80:128-n8:16:32:64-S128"
target triple = "x86_64-pc-linux-gnu"

%struct.PutBitContext = type { i32, i32, ptr, ptr, ptr }

@.str.35 = private unnamed_addr constant [43 x i8] c"Internal error, put_bits buffer too small\0A\00", align 1

; Function Attrs: alwaysinline nounwind willreturn memory(none) uwtable
define internal i32 @av_bswap32(i32 noundef %0) #7 {
  %2 = alloca i32, align 4
  store i32 %0, ptr %2, align 4, !tbaa !52
  %3 = load i32, ptr %2, align 4, !tbaa !52
  %4 = shl i32 %3, 8
  %5 = and i32 %4, 65280
  %6 = load i32, ptr %2, align 4, !tbaa !52
  %7 = lshr i32 %6, 8
  %8 = and i32 %7, 255
  %9 = or i32 %5, %8
  %10 = shl i32 %9, 16
  %11 = load i32, ptr %2, align 4, !tbaa !52
  %12 = lshr i32 %11, 16
  %13 = shl i32 %12, 8
  %14 = and i32 %13, 65280
  %15 = load i32, ptr %2, align 4, !tbaa !52
  %16 = lshr i32 %15, 16
  %17 = lshr i32 %16, 8
  %18 = and i32 %17, 255
  %19 = or i32 %14, %18
  %20 = or i32 %10, %19
  ret i32 %20
}

; Function Attrs: inlinehint nounwind uwtable
define internal void @put_bits_no_assert(ptr noundef %0, i32 noundef %1, i32 noundef %2) #9 {
  %4 = alloca ptr, align 8
  %5 = alloca i32, align 4
  %6 = alloca i32, align 4
  %7 = alloca i32, align 4
  %8 = alloca i32, align 4
  store ptr %0, ptr %4, align 8, !tbaa !96
  store i32 %1, ptr %5, align 4, !tbaa !52
  store i32 %2, ptr %6, align 4, !tbaa !52
  call void @llvm.lifetime.start.p0(i64 4, ptr %7) #10
  call void @llvm.lifetime.start.p0(i64 4, ptr %8) #10
  %9 = load ptr, ptr %4, align 8, !tbaa !96
  %10 = getelementptr inbounds nuw %struct.PutBitContext, ptr %9, i32 0, i32 0
  %11 = load i32, ptr %10, align 8, !tbaa !103
  store i32 %11, ptr %7, align 4, !tbaa !52
  %12 = load ptr, ptr %4, align 8, !tbaa !96
  %13 = getelementptr inbounds nuw %struct.PutBitContext, ptr %12, i32 0, i32 1
  %14 = load i32, ptr %13, align 4, !tbaa !102
  store i32 %14, ptr %8, align 4, !tbaa !52
  %15 = load i32, ptr %5, align 4, !tbaa !52
  %16 = load i32, ptr %8, align 4, !tbaa !52
  %17 = icmp slt i32 %15, %16
  br i1 %17, label %18, label %27

18:                                               ; preds = %3
  %19 = load i32, ptr %7, align 4, !tbaa !52
  %20 = load i32, ptr %5, align 4, !tbaa !52
  %21 = shl i32 %19, %20
  %22 = load i32, ptr %6, align 4, !tbaa !52
  %23 = or i32 %21, %22
  store i32 %23, ptr %7, align 4, !tbaa !52
  %24 = load i32, ptr %5, align 4, !tbaa !52
  %25 = load i32, ptr %8, align 4, !tbaa !52
  %26 = sub nsw i32 %25, %24
  store i32 %26, ptr %8, align 4, !tbaa !52
  br label %65

27:                                               ; preds = %3
  %28 = load i32, ptr %8, align 4, !tbaa !52
  %29 = load i32, ptr %7, align 4, !tbaa !52
  %30 = shl i32 %29, %28
  store i32 %30, ptr %7, align 4, !tbaa !52
  %31 = load i32, ptr %6, align 4, !tbaa !52
  %32 = load i32, ptr %5, align 4, !tbaa !52
  %33 = load i32, ptr %8, align 4, !tbaa !52
  %34 = sub nsw i32 %32, %33
  %35 = lshr i32 %31, %34
  %36 = load i32, ptr %7, align 4, !tbaa !52
  %37 = or i32 %36, %35
  store i32 %37, ptr %7, align 4, !tbaa !52
  %38 = load ptr, ptr %4, align 8, !tbaa !96
  %39 = getelementptr inbounds nuw %struct.PutBitContext, ptr %38, i32 0, i32 4
  %40 = load ptr, ptr %39, align 8, !tbaa !100
  %41 = load ptr, ptr %4, align 8, !tbaa !96
  %42 = getelementptr inbounds nuw %struct.PutBitContext, ptr %41, i32 0, i32 3
  %43 = load ptr, ptr %42, align 8, !tbaa !101
  %44 = ptrtoint ptr %40 to i64
  %45 = ptrtoint ptr %43 to i64
  %46 = sub i64 %44, %45
  %47 = icmp uge i64 %46, 4
  br i1 %47, label %48, label %58

48:                                               ; preds = %27
  %49 = load i32, ptr %7, align 4, !tbaa !52
  %50 = call i32 @av_bswap32(i32 noundef %49) #13
  %51 = load ptr, ptr %4, align 8, !tbaa !96
  %52 = getelementptr inbounds nuw %struct.PutBitContext, ptr %51, i32 0, i32 3
  %53 = load ptr, ptr %52, align 8, !tbaa !101
  store i32 %50, ptr %53, align 1, !tbaa !50
  %54 = load ptr, ptr %4, align 8, !tbaa !96
  %55 = getelementptr inbounds nuw %struct.PutBitContext, ptr %54, i32 0, i32 3
  %56 = load ptr, ptr %55, align 8, !tbaa !101
  %57 = getelementptr inbounds nuw i8, ptr %56, i64 4
  store ptr %57, ptr %55, align 8, !tbaa !101
  br label %59

58:                                               ; preds = %27
  call void (ptr, i32, ptr, ...) @av_log(ptr noundef null, i32 noundef 16, ptr noundef @.str.35)
  br label %59

59:                                               ; preds = %58, %48
  %60 = load i32, ptr %5, align 4, !tbaa !52
  %61 = sub nsw i32 32, %60
  %62 = load i32, ptr %8, align 4, !tbaa !52
  %63 = add nsw i32 %62, %61
  store i32 %63, ptr %8, align 4, !tbaa !52
  %64 = load i32, ptr %6, align 4, !tbaa !52
  store i32 %64, ptr %7, align 4, !tbaa !52
  br label %65

65:                                               ; preds = %59, %18
  %66 = load i32, ptr %7, align 4, !tbaa !52
  %67 = load ptr, ptr %4, align 8, !tbaa !96
  %68 = getelementptr inbounds nuw %struct.PutBitContext, ptr %67, i32 0, i32 0
  store i32 %66, ptr %68, align 8, !tbaa !103
  %69 = load i32, ptr %8, align 4, !tbaa !52
  %70 = load ptr, ptr %4, align 8, !tbaa !96
  %71 = getelementptr inbounds nuw %struct.PutBitContext, ptr %70, i32 0, i32 1
  store i32 %69, ptr %71, align 4, !tbaa !102
  call void @llvm.lifetime.end.p0(i64 4, ptr %8) #10
  call void @llvm.lifetime.end.p0(i64 4, ptr %7) #10
  ret void
}

; Function Attrs: inlinehint nounwind uwtable
define internal void @put_bits(ptr noundef %0, i32 noundef %1, i32 noundef %2) #9 {
  %4 = alloca ptr, align 8
  %5 = alloca i32, align 4
  %6 = alloca i32, align 4
  store ptr %0, ptr %4, align 8, !tbaa !96
  store i32 %1, ptr %5, align 4, !tbaa !52
  store i32 %2, ptr %6, align 4, !tbaa !52
  %7 = load ptr, ptr %4, align 8, !tbaa !96
  %8 = load i32, ptr %5, align 4, !tbaa !52
  %9 = load i32, ptr %6, align 4, !tbaa !52
  call void @put_bits_no_assert(ptr noundef %7, i32 noundef %8, i32 noundef %9)
  ret void
}

; Function Attrs: alwaysinline nounwind willreturn memory(none) uwtable
define internal i32 @av_zero_extend_c(i32 noundef %0, i32 noundef %1) #7 {
  %3 = alloca i32, align 4
  %4 = alloca i32, align 4
  store i32 %0, ptr %3, align 4, !tbaa !52
  store i32 %1, ptr %4, align 4, !tbaa !52
  %5 = load i32, ptr %3, align 4, !tbaa !52
  %6 = load i32, ptr %4, align 4, !tbaa !52
  %7 = shl i32 1, %6
  %8 = sub i32 %7, 1
  %9 = and i32 %5, %8
  ret i32 %9
}

; Function Attrs: nounwind uwtable
define internal void @put_alpha_diff(ptr noundef %0, i32 noundef %1, i32 noundef %2) #1 {
  %4 = alloca ptr, align 8
  %5 = alloca i32, align 4
  %6 = alloca i32, align 4
  %7 = alloca i32, align 4
  %8 = alloca i32, align 4
  %9 = alloca i32, align 4
  %10 = alloca i32, align 4
  store ptr %0, ptr %4, align 8, !tbaa !96
  store i32 %1, ptr %5, align 4, !tbaa !52
  store i32 %2, ptr %6, align 4, !tbaa !52
  call void @llvm.lifetime.start.p0(i64 4, ptr %7) #10
  store i32 16, ptr %7, align 4, !tbaa !52
  call void @llvm.lifetime.start.p0(i64 4, ptr %8) #10
  store i32 7, ptr %8, align 4, !tbaa !52
  call void @llvm.lifetime.start.p0(i64 4, ptr %9) #10
  store i32 64, ptr %9, align 4, !tbaa !52
  call void @llvm.lifetime.start.p0(i64 4, ptr %10) #10
  %11 = load i32, ptr %5, align 4, !tbaa !52
  %12 = load i32, ptr %6, align 4, !tbaa !52
  %13 = sub nsw i32 %11, %12
  store i32 %13, ptr %10, align 4, !tbaa !52
  %14 = load i32, ptr %10, align 4, !tbaa !52
  %15 = call i32 @av_zero_extend_c(i32 noundef %14, i32 noundef 16) #13
  store i32 %15, ptr %10, align 4, !tbaa !52
  %16 = load i32, ptr %10, align 4, !tbaa !52
  %17 = icmp sge i32 %16, 65472
  br i1 %17, label %18, label %21

18:                                               ; preds = %3
  %19 = load i32, ptr %10, align 4, !tbaa !52
  %20 = sub nsw i32 %19, 65536
  store i32 %20, ptr %10, align 4, !tbaa !52
  br label %21

21:                                               ; preds = %18, %3
  %22 = load i32, ptr %10, align 4, !tbaa !52
  %23 = icmp slt i32 %22, -64
  br i1 %23, label %30, label %24

24:                                               ; preds = %21
  %25 = load i32, ptr %10, align 4, !tbaa !52
  %26 = icmp sgt i32 %25, 64
  br i1 %26, label %30, label %27

27:                                               ; preds = %24
  %28 = load i32, ptr %10, align 4, !tbaa !52
  %29 = icmp ne i32 %28, 0
  br i1 %29, label %34, label %30

30:                                               ; preds = %27, %24, %21
  %31 = load ptr, ptr %4, align 8, !tbaa !96
  call void @put_bits(ptr noundef %31, i32 noundef 1, i32 noundef 1)
  %32 = load ptr, ptr %4, align 8, !tbaa !96
  %33 = load i32, ptr %10, align 4, !tbaa !52
  call void @put_bits(ptr noundef %32, i32 noundef 16, i32 noundef %33)
  br label %51

34:                                               ; preds = %27
  %35 = load ptr, ptr %4, align 8, !tbaa !96
  call void @put_bits(ptr noundef %35, i32 noundef 1, i32 noundef 0)
  %36 = load ptr, ptr %4, align 8, !tbaa !96
  %37 = load i32, ptr %10, align 4, !tbaa !52
  %38 = icmp sge i32 %37, 0
  br i1 %38, label %39, label %41

39:                                               ; preds = %34
  %40 = load i32, ptr %10, align 4, !tbaa !52
  br label %44

41:                                               ; preds = %34
  %42 = load i32, ptr %10, align 4, !tbaa !52
  %43 = sub nsw i32 0, %42
  br label %44

44:                                               ; preds = %41, %39
  %45 = phi i32 [ %40, %39 ], [ %43, %41 ]
  %46 = sub nsw i32 %45, 1
  call void @put_bits(ptr noundef %36, i32 noundef 6, i32 noundef %46)
  %47 = load ptr, ptr %4, align 8, !tbaa !96
  %48 = load i32, ptr %10, align 4, !tbaa !52
  %49 = icmp slt i32 %48, 0
  %50 = zext i1 %49 to i32
  call void @put_bits(ptr noundef %47, i32 noundef 1, i32 noundef %50)
  br label %51

51:                                               ; preds = %44, %30
  call void @llvm.lifetime.end.p0(i64 4, ptr %10) #10
  call void @llvm.lifetime.end.p0(i64 4, ptr %9) #10
  call void @llvm.lifetime.end.p0(i64 4, ptr %8) #10
  call void @llvm.lifetime.end.p0(i64 4, ptr %7) #10
  ret void
}