; Function Attrs: nounwind uwtable
define internal fastcc void @put_alpha_diff(ptr noundef nonnull captures(none) %0, i32 noundef range(i32 -32768, 32768) %1, i32 noundef range(i32 -32768, 65536) %2) unnamed_addr #1 {
  %4 = sub nsw i32 %1, %2
  %5 = and i32 %4, 65535
  %6 = icmp samesign ugt i32 %5, 65471
  %masksel = select i1 %6, i32 -65536, i32 0
  %spec.select = or disjoint i32 %masksel, %5
  %7 = icmp slt i32 %spec.select, 65
  %8 = icmp ne i32 %spec.select, 0
  %or.cond3 = and i1 %7, %8
  %9 = load i32, ptr %0, align 8, !tbaa !86
  %10 = getelementptr inbounds nuw i8, ptr %0, i64 4
  %11 = load i32, ptr %10, align 4, !tbaa !85
  %12 = icmp sgt i32 %11, 1
  br i1 %or.cond3, label %59, label %13

13:                                               ; preds = %3
  br i1 %12, label %14, label %17

14:                                               ; preds = %13
  %15 = shl i32 %9, 1
  %16 = or disjoint i32 %15, 1
  br label %put_bits.exit

17:                                               ; preds = %13
  %18 = getelementptr inbounds nuw i8, ptr %0, i64 24
  %19 = load ptr, ptr %18, align 8, !tbaa !83
  %20 = getelementptr inbounds nuw i8, ptr %0, i64 16
  %21 = load ptr, ptr %20, align 8, !tbaa !84
  %22 = ptrtoint ptr %19 to i64
  %23 = ptrtoint ptr %21 to i64
  %24 = sub i64 %22, %23
  %25 = icmp ugt i64 %24, 3
  br i1 %25, label %26, label %34

26:                                               ; preds = %17
  %27 = shl i32 %9, %11
  %28 = sub nsw i32 1, %11
  %29 = lshr i32 1, %28
  %30 = or i32 %29, %27
  %31 = tail call i32 @llvm.bswap.i32(i32 %30)
  store i32 %31, ptr %21, align 1, !tbaa !47
  %32 = load ptr, ptr %20, align 8, !tbaa !84
  %33 = getelementptr inbounds nuw i8, ptr %32, i64 4
  store ptr %33, ptr %20, align 8, !tbaa !84
  br label %put_bits.exit

34:                                               ; preds = %17
  tail call void (ptr, i32, ptr, ...) @av_log(ptr noundef null, i32 noundef 16, ptr noundef nonnull @.str.35) #8
  br label %put_bits.exit

put_bits.exit:                                    ; preds = %26, %34, %14
  %.sink = phi i32 [ -1, %14 ], [ 31, %34 ], [ 31, %26 ]
  %.026.i.i = phi i32 [ %16, %14 ], [ 1, %34 ], [ 1, %26 ]
  %35 = add nsw i32 %11, %.sink
  store i32 %.026.i.i, ptr %0, align 8, !tbaa !86
  store i32 %35, ptr %10, align 4, !tbaa !85
  %36 = icmp sgt i32 %35, 16
  br i1 %36, label %37, label %40

37:                                               ; preds = %put_bits.exit
  %38 = shl i32 %.026.i.i, 16
  %39 = or i32 %38, %spec.select
  br label %put_bits.exit24

40:                                               ; preds = %put_bits.exit
  %41 = getelementptr inbounds nuw i8, ptr %0, i64 24
  %42 = load ptr, ptr %41, align 8, !tbaa !83
  %43 = getelementptr inbounds nuw i8, ptr %0, i64 16
  %44 = load ptr, ptr %43, align 8, !tbaa !84
  %45 = ptrtoint ptr %42 to i64
  %46 = ptrtoint ptr %44 to i64
  %47 = sub i64 %45, %46
  %48 = icmp ugt i64 %47, 3
  br i1 %48, label %49, label %57

49:                                               ; preds = %40
  %50 = shl i32 %.026.i.i, %35
  %51 = sub nsw i32 16, %35
  %52 = lshr i32 %spec.select, %51
  %53 = or i32 %52, %50
  %54 = tail call i32 @llvm.bswap.i32(i32 %53)
  store i32 %54, ptr %44, align 1, !tbaa !47
  %55 = load ptr, ptr %43, align 8, !tbaa !84
  %56 = getelementptr inbounds nuw i8, ptr %55, i64 4
  store ptr %56, ptr %43, align 8, !tbaa !84
  br label %put_bits.exit24

57:                                               ; preds = %40
  tail call void (ptr, i32, ptr, ...) @av_log(ptr noundef null, i32 noundef 16, ptr noundef nonnull @.str.35) #8
  br label %put_bits.exit24

put_bits.exit24:                                  ; preds = %49, %57, %37
  %.sink37 = phi i32 [ -16, %37 ], [ 16, %57 ], [ 16, %49 ]
  %.026.i.i22 = phi i32 [ %39, %37 ], [ %spec.select, %57 ], [ %spec.select, %49 ]
  %58 = add nsw i32 %35, %.sink37
  br label %126

59:                                               ; preds = %3
  br i1 %12, label %60, label %62

60:                                               ; preds = %59
  %61 = shl i32 %9, 1
  br label %put_bits.exit28

62:                                               ; preds = %59
  %63 = getelementptr inbounds nuw i8, ptr %0, i64 24
  %64 = load ptr, ptr %63, align 8, !tbaa !83
  %65 = getelementptr inbounds nuw i8, ptr %0, i64 16
  %66 = load ptr, ptr %65, align 8, !tbaa !84
  %67 = ptrtoint ptr %64 to i64
  %68 = ptrtoint ptr %66 to i64
  %69 = sub i64 %67, %68
  %70 = icmp ugt i64 %69, 3
  br i1 %70, label %71, label %76

71:                                               ; preds = %62
  %72 = shl i32 %9, %11
  %73 = tail call i32 @llvm.bswap.i32(i32 %72)
  store i32 %73, ptr %66, align 1, !tbaa !47
  %74 = load ptr, ptr %65, align 8, !tbaa !84
  %75 = getelementptr inbounds nuw i8, ptr %74, i64 4
  store ptr %75, ptr %65, align 8, !tbaa !84
  br label %put_bits.exit28

76:                                               ; preds = %62
  tail call void (ptr, i32, ptr, ...) @av_log(ptr noundef null, i32 noundef 16, ptr noundef nonnull @.str.35) #8
  br label %put_bits.exit28

put_bits.exit28:                                  ; preds = %71, %76, %60
  %.sink38 = phi i32 [ -1, %60 ], [ 31, %76 ], [ 31, %71 ]
  %.026.i.i26 = phi i32 [ %61, %60 ], [ 0, %76 ], [ 0, %71 ]
  %77 = add nsw i32 %11, %.sink38
  store i32 %.026.i.i26, ptr %0, align 8, !tbaa !86
  store i32 %77, ptr %10, align 4, !tbaa !85
  %78 = tail call i32 @llvm.abs.i32(i32 %spec.select, i1 true)
  %79 = add nsw i32 %78, -1
  %80 = icmp sgt i32 %77, 6
  br i1 %80, label %81, label %84

81:                                               ; preds = %put_bits.exit28
  %82 = shl i32 %.026.i.i26, 6
  %83 = or i32 %82, %79
  br label %put_bits.exit32

84:                                               ; preds = %put_bits.exit28
  %85 = getelementptr inbounds nuw i8, ptr %0, i64 24
  %86 = load ptr, ptr %85, align 8, !tbaa !83
  %87 = getelementptr inbounds nuw i8, ptr %0, i64 16
  %88 = load ptr, ptr %87, align 8, !tbaa !84
  %89 = ptrtoint ptr %86 to i64
  %90 = ptrtoint ptr %88 to i64
  %91 = sub i64 %89, %90
  %92 = icmp ugt i64 %91, 3
  br i1 %92, label %93, label %101

93:                                               ; preds = %84
  %94 = shl i32 %.026.i.i26, %77
  %95 = sub nsw i32 6, %77
  %96 = lshr i32 %79, %95
  %97 = or i32 %96, %94
  %98 = tail call i32 @llvm.bswap.i32(i32 %97)
  store i32 %98, ptr %88, align 1, !tbaa !47
  %99 = load ptr, ptr %87, align 8, !tbaa !84
  %100 = getelementptr inbounds nuw i8, ptr %99, i64 4
  store ptr %100, ptr %87, align 8, !tbaa !84
  br label %put_bits.exit32

101:                                              ; preds = %84
  tail call void (ptr, i32, ptr, ...) @av_log(ptr noundef null, i32 noundef 16, ptr noundef nonnull @.str.35) #8
  br label %put_bits.exit32

put_bits.exit32:                                  ; preds = %93, %101, %81
  %.sink39 = phi i32 [ -6, %81 ], [ 26, %101 ], [ 26, %93 ]
  %.026.i.i30 = phi i32 [ %83, %81 ], [ %79, %101 ], [ %79, %93 ]
  %102 = add nsw i32 %77, %.sink39
  store i32 %.026.i.i30, ptr %0, align 8, !tbaa !86
  store i32 %102, ptr %10, align 4, !tbaa !85
  %.0.lobit = lshr i32 %masksel, 31
  %103 = icmp sgt i32 %102, 1
  br i1 %103, label %104, label %107

104:                                              ; preds = %put_bits.exit32
  %105 = shl i32 %.026.i.i30, 1
  %106 = or disjoint i32 %105, %.0.lobit
  br label %put_bits.exit36

107:                                              ; preds = %put_bits.exit32
  %108 = getelementptr inbounds nuw i8, ptr %0, i64 24
  %109 = load ptr, ptr %108, align 8, !tbaa !83
  %110 = getelementptr inbounds nuw i8, ptr %0, i64 16
  %111 = load ptr, ptr %110, align 8, !tbaa !84
  %112 = ptrtoint ptr %109 to i64
  %113 = ptrtoint ptr %111 to i64
  %114 = sub i64 %112, %113
  %115 = icmp ugt i64 %114, 3
  br i1 %115, label %116, label %124

116:                                              ; preds = %107
  %117 = shl i32 %.026.i.i30, %102
  %118 = sub nsw i32 1, %102
  %119 = lshr i32 %.0.lobit, %118
  %120 = or i32 %119, %117
  %121 = tail call i32 @llvm.bswap.i32(i32 %120)
  store i32 %121, ptr %111, align 1, !tbaa !47
  %122 = load ptr, ptr %110, align 8, !tbaa !84
  %123 = getelementptr inbounds nuw i8, ptr %122, i64 4
  store ptr %123, ptr %110, align 8, !tbaa !84
  br label %put_bits.exit36

124:                                              ; preds = %107
  tail call void (ptr, i32, ptr, ...) @av_log(ptr noundef null, i32 noundef 16, ptr noundef nonnull @.str.35) #8
  br label %put_bits.exit36

put_bits.exit36:                                  ; preds = %116, %124, %104
  %.sink40 = phi i32 [ -1, %104 ], [ 31, %124 ], [ 31, %116 ]
  %.026.i.i34 = phi i32 [ %106, %104 ], [ %.0.lobit, %124 ], [ %.0.lobit, %116 ]
  %125 = add nsw i32 %102, %.sink40
  br label %126

126:                                              ; preds = %put_bits.exit36, %put_bits.exit24
  %.026.i.i34.sink = phi i32 [ %.026.i.i34, %put_bits.exit36 ], [ %.026.i.i22, %put_bits.exit24 ]
  %.sink41 = phi i32 [ %125, %put_bits.exit36 ], [ %58, %put_bits.exit24 ]
  store i32 %.026.i.i34.sink, ptr %0, align 8, !tbaa !86
  store i32 %.sink41, ptr %10, align 4, !tbaa !85
  ret void
}